; Function Attrs: mustprogress uwtable
define dso_local void @_ZN16DefaultOutputMgr8outputlnERSo(ptr nonnull readnone align 8 captures(none) %0, ptr noundef nonnull align 8 dereferenceable(8) %1) unnamed_addr #5 align 2 {
  %3 = load ptr, ptr %1, align 8, !tbaa !15
  %4 = getelementptr i8, ptr %3, i64 -24
  %5 = load i64, ptr %4, align 8
  %6 = getelementptr inbounds i8, ptr %1, i64 %5
  %7 = getelementptr inbounds nuw i8, ptr %6, i64 240
  %8 = load ptr, ptr %7, align 8, !tbaa !53
  %.not.i.i.i = icmp eq ptr %8, null
  br i1 %.not.i.i.i, label %9, label %_ZSt13__check_facetISt5ctypeIcEERKT_PS3_.exit.i.i

9:                                                ; preds = %2
  tail call void @_ZSt16__throw_bad_castv() #20
  unreachable

_ZSt13__check_facetISt5ctypeIcEERKT_PS3_.exit.i.i: ; preds = %2
  %10 = getelementptr inbounds nuw i8, ptr %8, i64 56
  %11 = load i8, ptr %10, align 8, !tbaa !68
  %.not.i1.i.i = icmp eq i8 %11, 0
  br i1 %.not.i1.i.i, label %15, label %12

12:                                               ; preds = %_ZSt13__check_facetISt5ctypeIcEERKT_PS3_.exit.i.i
  %13 = getelementptr inbounds nuw i8, ptr %8, i64 67
  %14 = load i8, ptr %13, align 1, !tbaa !26
  br label %_ZSt4endlIcSt11char_traitsIcEERSt13basic_ostreamIT_T0_ES6_.exit

15:                                               ; preds = %_ZSt13__check_facetISt5ctypeIcEERKT_PS3_.exit.i.i
  tail call void @_ZNKSt5ctypeIcE13_M_widen_initEv(ptr noundef nonnull align 8 dereferenceable(570) %8)
  %16 = load ptr, ptr %8, align 8, !tbaa !15
  %17 = getelementptr inbounds nuw i8, ptr %16, i64 48
  %18 = load ptr, ptr %17, align 8
  %19 = tail call noundef signext i8 %18(ptr noundef nonnull align 8 dereferenceable(570) %8, i8 noundef signext 10)
  br label %_ZSt4endlIcSt11char_traitsIcEERSt13basic_ostreamIT_T0_ES6_.exit

_ZSt4endlIcSt11char_traitsIcEERSt13basic_ostreamIT_T0_ES6_.exit: ; preds = %12, %15
  %.0.i.i.i = phi i8 [ %14, %12 ], [ %19, %15 ]
  %20 = tail call noundef nonnull align 8 dereferenceable(8) ptr @_ZNSo3putEc(ptr noundef nonnull align 8 dereferenceable(8) %1, i8 noundef signext %.0.i.i.i)
  %21 = tail call noundef nonnull align 8 dereferenceable(8) ptr @_ZNSo5flushEv(ptr noundef nonnull align 8 dereferenceable(8) %20)
  ret void
}